(lp0
(dp1
S'time_spend'
p2
F7003.37549
sS'p_dir'
p3
S'P0_uxd_wmza'
p4
sS'resultABS'
p5
F0.009093367790224929
sS'accuracy'
p6
F0.002969206878134125
sS'wgt_frac'
p7
F1.0
sS'run_mode'
p8
S'all'
p9
sS'err_percABS'
p10
F0.40590609568514713
sS'errorABS'
p11
F3.691053416359275e-05
sS'mint_mode'
p12
I2
sS'niters_done'
p13
I2
sS'nevents'
p14
I0
sS'result'
p15
F0.008045527136188776
sS'npoints_done'
p16
I3276800
sS'error'
p17
F3.740211035381431e-05
sS'npoints'
p18
I-1
sS'niters'
p19
I12
sS'dirname'
p20
S'/x5/cms/jwkim/Generator/pp2WVG_madspin_CMSWorkFlow/CMSSW_10_2_6/src/lheevent/process/SubProcesses/P0_uxd_wmza/GF11'
p21
sS'err_perc'
p22
F0.46488079302572527
sS'channel'
p23
S'11'
p24
sS'split'
p25
I0
sa(dp26
g2
F7051.47119
sg3
S'P0_dux_wmza'
p27
sg5
F0.008998034886046165
sg6
F0.0029848945983219056
sg7
F1.0
sg8
g9
sg10
F0.4038097907682318
sg11
F3.6334945846595526e-05
sg12
I2
sg13
I2
sg14
I0
sg15
F0.008000904019179982
sg16
I3276800
sg17
F3.916642188773853e-05
sg18
I-1
sg19
I12
sg20
S'/x5/cms/jwkim/Generator/pp2WVG_madspin_CMSWorkFlow/CMSSW_10_2_6/src/lheevent/process/SubProcesses/P0_dux_wmza/GF13'
p28
sg22
F0.489524956103057
sg23
S'13'
p29
sg25
I0
sa(dp30
g2
F7314.89258
sg3
g4
sg5
F0.009321553080627973
sg6
F0.0029326396219871115
sg7
F1.0
sg8
g9
sg10
F0.36754985681514846
sg11
F3.426135500079617e-05
sg12
I2
sg13
I2
sg14
I1
sg15
F0.008726873272356625
sg16
I3276800
sg17
F3.4316669530605384e-05
sg18
I-1
sg19
I12
sg20
S'/x5/cms/jwkim/Generator/pp2WVG_madspin_CMSWorkFlow/CMSSW_10_2_6/src/lheevent/process/SubProcesses/P0_uxd_wmza/GF2'
p31
sg22
F0.39322983684554447
sg23
S'2'
p32
sg25
I0
sa(dp33
g2
F7596.9624
sg3
g27
sg5
F0.009311546392358289
sg6
F0.0029342149849451967
sg7
F1.0
sg8
g9
sg10
F0.34069950958726064
sg11
F3.172439289375495e-05
sg12
I2
sg13
I2
sg14
I1
sg15
F0.008715756390310194
sg16
I3276800
sg17
F3.176179687638128e-05
sg18
I-1
sg19
I12
sg20
S'/x5/cms/jwkim/Generator/pp2WVG_madspin_CMSWorkFlow/CMSSW_10_2_6/src/lheevent/process/SubProcesses/P0_dux_wmza/GF2'
p34
sg22
F0.3644181348585269
sg23
g32
sg25
I0
sa(dp35
g2
F7719.57471
sg3
g27
sg5
F0.005173444846662735
sg6
F0.003936524190854479
sg7
F1.0
sg8
g9
sg10
F0.514279144336252
sg11
F2.6605947890125038e-05
sg12
I2
sg13
I2
sg14
I0
sg15
F0.004869245841723356
sg16
I3276800
sg17
F2.7167632051958002e-05
sg18
I-1
sg19
I12
sg20
S'/x5/cms/jwkim/Generator/pp2WVG_madspin_CMSWorkFlow/CMSSW_10_2_6/src/lheevent/process/SubProcesses/P0_dux_wmza/GF8'
p36
sg22
F0.5579433229508627
sg23
S'8'
p37
sg25
I0
sa(dp38
g2
F7419.05713
sg3
g27
sg5
F0.00436370493872491
sg6
F0.004286226803632868
sg7
F1.0
sg8
g9
sg10
F0.5136175466521911
sg11
F2.2412754249419376e-05
sg12
I2
sg13
I2
sg14
I0
sg15
F0.0038733524005707728
sg16
I3276800
sg17
F2.286770233294576e-05
sg18
I-1
sg19
I12
sg20
S'/x5/cms/jwkim/Generator/pp2WVG_madspin_CMSWorkFlow/CMSSW_10_2_6/src/lheevent/process/SubProcesses/P0_dux_wmza/GF7'
p39
sg22
F0.5903852778687527
sg23
S'7'
p40
sg25
I0
sa(dp41
g2
F7746.4165
sg3
g4
sg5
F0.005161609800869303
sg6
F0.0039410346314446044
sg7
F1.0
sg8
g9
sg10
F0.4055296274050908
sg11
F2.0931856993569933e-05
sg12
I2
sg13
I2
sg14
I1
sg15
F0.004847190494449161
sg16
I3276800
sg17
F2.0981017744031848e-05
sg18
I-1
sg19
I12
sg20
S'/x5/cms/jwkim/Generator/pp2WVG_madspin_CMSWorkFlow/CMSSW_10_2_6/src/lheevent/process/SubProcesses/P0_uxd_wmza/GF12'
p42
sg22
F0.43284904457661816
sg23
S'12'
p43
sg25
I0
sa(dp44
g2
F7623.59912
sg3
g4
sg5
F0.004412008057190899
sg6
F0.004262699204588823
sg7
F1.0
sg8
g9
sg10
F0.40828065150518733
sg11
F1.801337524036036e-05
sg12
I2
sg13
I2
sg14
I0
sg15
F0.0038904800653051835
sg16
I3276800
sg17
F1.808475838280109e-05
sg18
I-1
sg19
I12
sg20
S'/x5/cms/jwkim/Generator/pp2WVG_madspin_CMSWorkFlow/CMSSW_10_2_6/src/lheevent/process/SubProcesses/P0_uxd_wmza/GF10'
p45
sg22
F0.46484644771936273
sg23
S'10'
p46
sg25
I0
sa(dp47
g2
F4358.44482
sg3
g27
sg5
F0.003485755137215632
sg6
F0.004795726400450524
sg7
F1.0
sg8
g9
sg10
F0.4510818755731361
sg11
F1.5723609650839216e-05
sg12
I2
sg13
I2
sg14
I0
sg15
F0.0032541780857703656
sg16
I1638400
sg17
F1.5681256467202318e-05
sg18
I-1
sg19
I12
sg20
S'/x5/cms/jwkim/Generator/pp2WVG_madspin_CMSWorkFlow/CMSSW_10_2_6/src/lheevent/process/SubProcesses/P0_dux_wmza/GF12'
p48
sg22
F0.4818807100868936
sg23
S'12'
p49
sg25
I0
sa(dp50
g2
F7614.82861
sg3
g27
sg5
F0.003347190949370606
sg6
F0.00489398452888538
sg7
F1.0
sg8
g9
sg10
F0.45005471075210735
sg11
F1.5064190545510597e-05
sg12
I2
sg13
I2
sg14
I0
sg15
F0.002928631408436263
sg16
I3276800
sg17
F1.4851764487569785e-05
sg18
I-1
sg19
I12
sg20
S'/x5/cms/jwkim/Generator/pp2WVG_madspin_CMSWorkFlow/CMSSW_10_2_6/src/lheevent/process/SubProcesses/P0_dux_wmza/GF5'
p51
sg22
F0.5071230351756644
sg23
S'5'
p52
sg25
I0
sa(dp53
g2
F7686.23779
sg3
g4
sg5
F0.0035069557305779935
sg6
F0.004781208627900829
sg7
F1.0
sg8
g9
sg10
F0.4171517578201204
sg11
F1.4629327476079543e-05
sg12
I2
sg13
I2
sg14
I0
sg15
F0.003284306897902881
sg16
I3276800
sg17
F1.485379829858661e-05
sg18
I-1
sg19
I12
sg20
S'/x5/cms/jwkim/Generator/pp2WVG_madspin_CMSWorkFlow/CMSSW_10_2_6/src/lheevent/process/SubProcesses/P0_uxd_wmza/GF8'
p54
sg22
F0.4522658436113618
sg23
g37
sg25
I0
sa(dp55
g2
F7207.12842
sg3
g4
sg5
F0.00338525931662074
sg6
F0.0048663894885999336
sg7
F1.0
sg8
g9
sg10
F0.3464563572998915
sg11
F1.1728446113519415e-05
sg12
I2
sg13
I2
sg14
I1
sg15
F0.002958835853590621
sg16
I3276800
sg17
F1.1797779423081558e-05
sg18
I-1
sg19
I12
sg20
S'/x5/cms/jwkim/Generator/pp2WVG_madspin_CMSWorkFlow/CMSSW_10_2_6/src/lheevent/process/SubProcesses/P0_uxd_wmza/GF9'
p56
sg22
F0.3987304469345489
sg23
S'9'
p57
sg25
I0
sa(dp58
g2
F3458.73022
sg3
g27
sg5
F0.0020583441414596506
sg6
F0.006240851411064582
sg7
F1.0
sg8
g9
sg10
F0.5367001169586302
sg11
F1.1047135414625057e-05
sg12
I2
sg13
I2
sg14
I1
sg15
F0.00189820574656145
sg16
I1638400
sg17
F1.1078203834158419e-05
sg18
I-1
sg19
I12
sg20
S'/x5/cms/jwkim/Generator/pp2WVG_madspin_CMSWorkFlow/CMSSW_10_2_6/src/lheevent/process/SubProcesses/P0_dux_wmza/GF11'
p59
sg22
F0.5836144924872498
sg23
S'11'
p60
sg25
I0
sa(dp61
g2
F6289.58203
sg3
g4
sg5
F0.002064407972965378
sg6
F0.006231678974605477
sg7
F1.0
sg8
g9
sg10
F0.4887325694490495
sg11
F1.008943413018473e-05
sg12
I2
sg13
I2
sg14
I0
sg15
F0.001893922959402166
sg16
I3276800
sg17
F9.276935630829373e-06
sg18
I-1
sg19
I12
sg20
S'/x5/cms/jwkim/Generator/pp2WVG_madspin_CMSWorkFlow/CMSSW_10_2_6/src/lheevent/process/SubProcesses/P0_uxd_wmza/GF13'
p62
sg22
F0.48982645174530876
sg23
S'13'
p63
sg25
I0
sa(dp64
g2
F3363.18774
sg3
g4
sg5
F0.0011304195516407187
sg6
F0.00842137498918062
sg7
F1.0
sg8
g9
sg10
F0.7124514675283807
sg11
F8.053690684892042e-06
sg12
I2
sg13
I2
sg14
I0
sg15
F0.00102347403556262
sg16
I1638400
sg17
F7.728039669468834e-06
sg18
I-1
sg19
I12
sg20
S'/x5/cms/jwkim/Generator/pp2WVG_madspin_CMSWorkFlow/CMSSW_10_2_6/src/lheevent/process/SubProcesses/P0_uxd_wmza/GF5'
p65
sg22
F0.7550792107022634
sg23
g52
sg25
I0
sa(dp66
g2
F2338.83032
sg3
g27
sg5
F0.0011111424195386532
sg6
F0.00849411179207475
sg7
F1.0
sg8
g9
sg10
F0.6908201917507654
sg11
F7.675996193281018e-06
sg12
I2
sg13
I2
sg14
I0
sg15
F0.0010234559342793366
sg16
I819200
sg17
F8.004527261423995e-06
sg18
I-1
sg19
I12
sg20
S'/x5/cms/jwkim/Generator/pp2WVG_madspin_CMSWorkFlow/CMSSW_10_2_6/src/lheevent/process/SubProcesses/P0_dux_wmza/GF9'
p67
sg22
F0.7821076602638841
sg23
g57
sg25
I0
sa(dp68
g2
F1065.69189
sg3
g4
sg5
F0.0006640355310073584
sg6
F0.010987709717196321
sg7
F1.0
sg8
g9
sg10
F1.0752129748448442
sg11
F7.139796186970977e-06
sg12
I2
sg13
I2
sg14
I0
sg15
F0.0006180151710807604
sg16
I409600
sg17
F7.009052562910788e-06
sg18
I-1
sg19
I12
sg20
S'/x5/cms/jwkim/Generator/pp2WVG_madspin_CMSWorkFlow/CMSSW_10_2_6/src/lheevent/process/SubProcesses/P0_uxd_wmza/GF7'
p69
sg22
F1.134123058929708
sg23
g40
sg25
I0
sa(dp70
g2
F1228.56921
sg3
g27
sg5
F0.0006656367373092443
sg6
F0.010974486150753021
sg7
F1.0
sg8
g9
sg10
F0.9381487179737821
sg11
F6.244662517429187e-06
sg12
I2
sg13
I2
sg14
I0
sg15
F0.0006198107247092475
sg16
I409600
sg17
F6.227399281699719e-06
sg18
I-1
sg19
I12
sg20
S'/x5/cms/jwkim/Generator/pp2WVG_madspin_CMSWorkFlow/CMSSW_10_2_6/src/lheevent/process/SubProcesses/P0_dux_wmza/GF10'
p71
sg22
F1.004725964466166
sg23
S'10'
p72
sg25
I0
sa(dp73
g2
F1346.75818
sg3
g27
sg5
F0.0007301110145724784
sg6
F0.010478723628991056
sg7
F1.0
sg8
g9
sg10
F0.8218058970929993
sg11
F6.000095373082155e-06
sg12
I2
sg13
I2
sg14
I0
sg15
F0.0006858496911670431
sg16
I409600
sg17
F6.009713767876988e-06
sg18
I-1
sg19
I12
sg20
S'/x5/cms/jwkim/Generator/pp2WVG_madspin_CMSWorkFlow/CMSSW_10_2_6/src/lheevent/process/SubProcesses/P0_dux_wmza/GF4'
p74
sg22
F0.8762435625874306
sg23
S'4'
p75
sg25
I0
sa(dp76
g2
F1347.66321
sg3
g4
sg5
F0.0004447511110624863
sg6
F0.013425928052178114
sg7
F1.0
sg8
g9
sg10
F1.2040565368204341
sg11
F5.355054825329375e-06
sg12
I2
sg13
I2
sg14
I0
sg15
F0.0004273341468509903
sg16
I409600
sg17
F5.830055876564436e-06
sg18
I-1
sg19
I12
sg20
S'/x5/cms/jwkim/Generator/pp2WVG_madspin_CMSWorkFlow/CMSSW_10_2_6/src/lheevent/process/SubProcesses/P0_uxd_wmza/GF1'
p77
sg22
F1.364285049422309
sg23
S'1'
p78
sg25
I0
sa(dp79
g2
F4326.45752
sg3
g4
sg5
F0.0007633502982908413
sg6
F0.010248041998325495
sg7
F1.0
sg8
g9
sg10
F0.6640635376560787
sg11
F5.0691309955383904e-06
sg12
I2
sg13
I2
sg14
I0
sg15
F0.000713977048505442
sg16
I1638400
sg17
F5.392414503945671e-06
sg18
I-1
sg19
I12
sg20
S'/x5/cms/jwkim/Generator/pp2WVG_madspin_CMSWorkFlow/CMSSW_10_2_6/src/lheevent/process/SubProcesses/P0_uxd_wmza/GF6'
p80
sg22
F0.7552644045398288
sg23
S'6'
p81
sg25
I0
sa(dp82
g2
F2913.65503
sg3
g27
sg5
F0.00043853843381587405
sg6
F0.013520694678495931
sg7
F1.0
sg8
g9
sg10
F0.8915853589434953
sg11
F3.909944469242444e-06
sg12
I2
sg13
I2
sg14
I0
sg15
F0.00042005662665101144
sg16
I819200
sg17
F3.908850346795348e-06
sg18
I-1
sg19
I12
sg20
S'/x5/cms/jwkim/Generator/pp2WVG_madspin_CMSWorkFlow/CMSSW_10_2_6/src/lheevent/process/SubProcesses/P0_dux_wmza/GF1'
p83
sg22
F0.9305531918302224
sg23
g78
sg25
I0
sa(dp84
g2
F1245.06274
sg3
g27
sg5
F0.0002722797636668556
sg6
F0.01715912562859381
sg7
F1.0
sg8
g9
sg10
F1.3242919092908922
sg11
F3.605778880876531e-06
sg12
I2
sg13
I2
sg14
I0
sg15
F0.00025733314491835
sg16
I409600
sg17
F3.6203485917641818e-06
sg18
I-1
sg19
I12
sg20
S'/x5/cms/jwkim/Generator/pp2WVG_madspin_CMSWorkFlow/CMSSW_10_2_6/src/lheevent/process/SubProcesses/P0_dux_wmza/GF6'
p85
sg22
F1.4068722445034791
sg23
g81
sg25
I0
sa(dp86
g2
F722.263184
sg3
g4
sg5
F0.0002654055950448113
sg6
F0.017379921052651532
sg7
F1.0
sg8
g9
sg10
F1.35062182854207
sg11
F3.5846259008471916e-06
sg12
I2
sg13
I2
sg14
I0
sg15
F0.00025093790340968204
sg16
I204800
sg17
F3.6051313752876037e-06
sg18
I-1
sg19
I12
sg20
S'/x5/cms/jwkim/Generator/pp2WVG_madspin_CMSWorkFlow/CMSSW_10_2_6/src/lheevent/process/SubProcesses/P0_uxd_wmza/GF4'
p87
sg22
F1.4366627465607913
sg23
g75
sg25
I0
sa.